target datalayout = "e-m:e-p270:32:32-p271:32:32-p272:64:64-i64:64-i128:128-f80:128-n8:16:32:64-S128"
target triple = "x86_64-pc-linux-gnu"

%struct._zval_struct = type { %union._zend_value, %union.anon, %union.anon.2 }
%union._zend_value = type { i64 }
%union.anon = type { i32 }
%union.anon.2 = type { i32 }

@zend_known_strings = external global ptr, align 8
@zend_ce_error_exception = global ptr null, align 8

; Function Attrs: nounwind uwtable
define ptr @zend_throw_error_exception(ptr noundef %0, ptr noundef %1, i64 noundef %2, i32 noundef %3) #0 {
  %5 = alloca ptr, align 8
  %6 = alloca ptr, align 8
  %7 = alloca ptr, align 8
  %8 = alloca ptr, align 8
  %9 = alloca i64, align 8
  %10 = alloca i32, align 4
  %11 = alloca ptr, align 8
  %12 = alloca %struct._zval_struct, align 8
  %13 = alloca ptr, align 8
  store ptr %0, ptr %7, align 8
  store ptr %1, ptr %8, align 8
  store i64 %2, ptr %9, align 8
  store i32 %3, ptr %10, align 4
  %14 = load ptr, ptr %7, align 8
  %15 = load ptr, ptr %8, align 8
  %16 = load i64, ptr %9, align 8
  %17 = call ptr @zend_throw_exception_zstr(ptr noundef %14, ptr noundef %15, i64 noundef %16)
  store ptr %17, ptr %11, align 8
  %18 = load ptr, ptr %7, align 8
  %19 = icmp ne ptr %18, null
  br i1 %19, label %20, label %46

20:                                               ; preds = %4
  %21 = load ptr, ptr %7, align 8
  %22 = load ptr, ptr @zend_ce_error_exception, align 8
  store ptr %21, ptr %5, align 8
  store ptr %22, ptr %6, align 8
  %23 = load ptr, ptr %5, align 8
  %24 = load ptr, ptr %6, align 8
  %25 = icmp eq ptr %23, %24
  br i1 %25, label %30, label %26

26:                                               ; preds = %20
  %27 = load ptr, ptr %5, align 8
  %28 = load ptr, ptr %6, align 8
  %29 = call zeroext i1 @instanceof_function_slow(ptr noundef %27, ptr noundef %28) #12
  br label %30

30:                                               ; preds = %26, %20
  %31 = phi i1 [ true, %20 ], [ %29, %26 ]
  br i1 %31, label %32, label %46

32:                                               ; preds = %30
  br label %33

33:                                               ; preds = %32
  store ptr %12, ptr %13, align 8
  %34 = load i32, ptr %10, align 4
  %35 = sext i32 %34 to i64
  %36 = load ptr, ptr %13, align 8
  %37 = getelementptr inbounds %struct._zval_struct, ptr %36, i32 0, i32 0
  store i64 %35, ptr %37, align 8
  %38 = load ptr, ptr %13, align 8
  %39 = getelementptr inbounds %struct._zval_struct, ptr %38, i32 0, i32 1
  store i32 4, ptr %39, align 8
  br label %40

40:                                               ; preds = %33
  %41 = load ptr, ptr @zend_ce_error_exception, align 8
  %42 = load ptr, ptr %11, align 8
  %43 = load ptr, ptr @zend_known_strings, align 8
  %44 = getelementptr inbounds ptr, ptr %43, i64 26
  %45 = load ptr, ptr %44, align 8
  call void @zend_update_property_ex(ptr noundef %41, ptr noundef %42, ptr noundef %45, ptr noundef %12)
  br label %46

46:                                               ; preds = %40, %30, %4
  %47 = load ptr, ptr %11, align 8
  ret ptr %47
}