; Function Attrs: nounwind uwtable
define ptr @zend_throw_error_exception(ptr noundef %0, ptr noundef %1, i64 noundef %2, i32 noundef %3) local_unnamed_addr #0 {
  %5 = alloca %struct._zval_struct, align 8
  %6 = tail call fastcc ptr @zend_throw_exception_zstr(ptr noundef %0, ptr noundef %1, i64 noundef %2)
  %.not = icmp eq ptr %0, null
  br i1 %.not, label %18, label %7

7:                                                ; preds = %4
  %8 = load ptr, ptr @zend_ce_error_exception, align 8
  %9 = icmp eq ptr %8, %0
  br i1 %9, label %.critedge, label %10

10:                                               ; preds = %7
  %11 = tail call zeroext i1 @instanceof_function_slow(ptr noundef nonnull %0, ptr noundef %8) #15
  br i1 %11, label %..critedge_crit_edge, label %18

..critedge_crit_edge:                             ; preds = %10
  %.pre = load ptr, ptr @zend_ce_error_exception, align 8
  br label %.critedge

.critedge:                                        ; preds = %..critedge_crit_edge, %7
  %12 = phi ptr [ %.pre, %..critedge_crit_edge ], [ %0, %7 ]
  %13 = sext i32 %3 to i64
  store i64 %13, ptr %5, align 8
  %14 = getelementptr inbounds i8, ptr %5, i64 8
  store i32 4, ptr %14, align 8
  %15 = load ptr, ptr @zend_known_strings, align 8
  %16 = getelementptr inbounds i8, ptr %15, i64 208
  %17 = load ptr, ptr %16, align 8
  call void @zend_update_property_ex(ptr noundef %12, ptr noundef %6, ptr noundef %17, ptr noundef nonnull %5) #15
  br label %18

18:                                               ; preds = %.critedge, %10, %4
  ret ptr %6
}